(lp0
(lp1
I3
aI3
aI3
aI3
aI3
aI3
aI3
aI3
aI3
aI3
aI3
aI3
aa(lp2
I-1
aI-1
aI-1
aI-1
aI5
aI5
aI5
aI-1
aI5
aI-1
aI-1
aI-1
aa(lp3
I-1
aI5
aI5
aI5
aI5
aI5
aI5
aI-1
aI5
aI-1
aI5
aI5
aa(lp4
I-1
aI5
aI5
aI5
aI5
aI5
aI5
aI-1
aI5
aI-1
aI5
aI5
aa(lp5
I-1
aI5
aI5
aI5
aI5
aI5
aI5
aI-1
aI5
aI5
aI-1
aI5
aa(lp6
I-1
aI5
aI5
aI5
aI-1
aI5
aI5
aI-1
aI5
aI5
aI-1
aI-1
aa(lp7
I-1
aI5
aI5
aI5
aI-1
aI5
aI5
aI-1
aI5
aI-1
aI5
aI-1
aa(lp8
I-1
aI5
aI5
aI5
aI5
aI5
aI5
aI-1
aI5
aI-1
aI5
aI5
aa(lp9
I-1
aI5
aI5
aI5
aI5
aI5
aI5
aI-1
aI5
aI-1
aI5
aI5
aa(lp10
I-1
aI-1
aI5
aI5
aI5
aI5
aI5
aI-1
aI5
aI-1
aI-1
aI-1
aa(lp11
I-1
aI-1
aI5
aI5
aI5
aI5
aI5
aI-1
aI5
aI5
aI-1
aI-1
aa(lp12
I-1
aI-1
aI-1
aI5
aI5
aI5
aI5
aI-1
aI5
aI5
aI-1
aI-1
aa(lp13
I-1
aI-1
aI-1
aI-1
aI5
aI5
aI5
aI-1
aI5
aI-1
aI-1
aI-1
aa(lp14
I-1
aI-1
aI-1
aI-1
aI-1
aI5
aI5
aI-1
aI-1
aI-1
aI-1
aI-1
aa.