(lp0
(lp1
I3
aI3
aI3
aI3
aI3
aI3
aI3
aI3
aI3
aI3
aI3
aI3
aI3
aI3
aI3
aI3
aI3
aI3
aI3
aI3
aI3
aI3
aI3
aI3
aI3
aI3
aI3
aI3
aI3
aI3
aI3
aI3
aI3
aI3
aI3
aI3
aI3
aa(lp2
I0
aI0
aI0
aI0
aI5
aI5
aI5
aI0
aI5
aI0
aI0
aI0
aI0
aI-1
aI-1
aI-1
aI-1
aI-1
aI-1
aI-1
aI-1
aI-1
aI-1
aI-1
aI-1
aI-1
aI-1
aI-1
aI-1
aI-1
aI-1
aI-1
aI-1
aI-1
aI-1
aI-1
aI-1
aa(lp3
I0
aI5
aI5
aI5
aI5
aI5
aI5
aI0
aI5
aI0
aI5
aI5
aI0
aI-1
aI0
aI0
aI0
aI0
aI0
aI0
aI0
aI0
aI0
aI0
aI0
aI0
aI-1
aI0
aI0
aI0
aI-1
aI-1
aI-1
aI0
aI0
aI0
aI-1
aa(lp4
I0
aI5
aI5
aI5
aI5
aI5
aI5
aI0
aI5
aI0
aI5
aI5
aI0
aI0
aI0
aI3
aI3
aI3
aI0
aI0
aI3
aI3
aI3
aI3
aI3
aI0
aI0
aI3
aI3
aI0
aI0
aI0
aI0
aI0
aI3
aI0
aI-1
aa(lp5
I0
aI5
aI5
aI5
aI5
aI5
aI5
aI0
aI5
aI5
aI0
aI5
aI0
aI0
aI3
aI0
aI0
aI0
aI3
aI0
aI0
aI3
aI0
aI0
aI0
aI3
aI0
aI0
aI3
aI0
aI0
aI0
aI0
aI0
aI3
aI0
aI-1
aa(lp6
I0
aI5
aI5
aI5
aI0
aI5
aI5
aI0
aI5
aI5
aI0
aI0
aI0
aI0
aI3
aI0
aI0
aI0
aI0
aI0
aI0
aI3
aI0
aI0
aI0
aI3
aI0
aI0
aI3
aI0
aI0
aI0
aI0
aI0
aI3
aI0
aI-1
aa(lp7
I0
aI5
aI5
aI5
aI0
aI5
aI5
aI0
aI5
aI0
aI5
aI0
aI0
aI0
aI3
aI0
aI0
aI0
aI0
aI0
aI0
aI3
aI0
aI0
aI0
aI3
aI0
aI0
aI3
aI0
aI0
aI0
aI0
aI0
aI3
aI0
aI-1
aa(lp8
I0
aI5
aI5
aI5
aI5
aI5
aI5
aI0
aI5
aI0
aI5
aI5
aI0
aI0
aI0
aI3
aI3
aI3
aI0
aI0
aI0
aI3
aI3
aI3
aI3
aI0
aI0
aI0
aI3
aI0
aI0
aI0
aI0
aI0
aI3
aI0
aI-1
aa(lp9
I0
aI5
aI5
aI5
aI5
aI5
aI5
aI0
aI5
aI0
aI5
aI5
aI0
aI0
aI0
aI0
aI0
aI0
aI3
aI0
aI0
aI3
aI0
aI0
aI0
aI3
aI0
aI0
aI3
aI0
aI0
aI0
aI0
aI0
aI3
aI0
aI-1
aa(lp10
I0
aI0
aI5
aI5
aI5
aI5
aI5
aI0
aI5
aI0
aI0
aI0
aI0
aI0
aI0
aI0
aI0
aI0
aI3
aI0
aI0
aI3
aI0
aI0
aI0
aI3
aI0
aI0
aI3
aI0
aI0
aI0
aI0
aI0
aI3
aI0
aI-1
aa(lp11
I0
aI0
aI5
aI5
aI5
aI5
aI5
aI0
aI5
aI5
aI0
aI0
aI0
aI0
aI3
aI0
aI0
aI0
aI3
aI0
aI0
aI3
aI0
aI0
aI0
aI3
aI0
aI0
aI0
aI3
aI0
aI0
aI0
aI3
aI0
aI0
aI-1
aa(lp12
I0
aI0
aI0
aI5
aI5
aI5
aI5
aI0
aI5
aI5
aI0
aI0
aI0
aI0
aI0
aI3
aI3
aI3
aI0
aI0
aI3
aI3
aI3
aI3
aI3
aI0
aI0
aI0
aI0
aI0
aI3
aI3
aI3
aI0
aI0
aI-1
aI-1
aa(lp13
I0
aI0
aI0
aI0
aI5
aI5
aI5
aI0
aI5
aI0
aI0
aI0
aI-1
aI-1
aI0
aI0
aI0
aI0
aI0
aI0
aI0
aI0
aI0
aI0
aI0
aI0
aI-1
aI-1
aI0
aI0
aI0
aI0
aI0
aI0
aI-1
aI-1
aI-1
aa(lp14
I0
aI0
aI0
aI0
aI0
aI5
aI5
aI0
aI0
aI0
aI0
aI0
aI-1
aI-1
aI-1
aI-1
aI-1
aI-1
aI-1
aI-1
aI-1
aI-1
aI-1
aI-1
aI-1
aI-1
aI-1
aI-1
aI-1
aI-1
aI-1
aI-1
aI-1
aI-1
aI-1
aI-1
aI-1
aa.